target datalayout = "e-m:e-p270:32:32-p271:32:32-p272:64:64-i64:64-i128:128-f80:128-n8:16:32:64-S128"
target triple = "x86_64-pc-linux-gnu"

; Function Attrs: nounwind uwtable
define internal void @conv_AV_SAMPLE_FMT_U8_to_AV_SAMPLE_FMT_S16(ptr noundef %0, ptr noundef %1, i32 noundef %2, i32 noundef %3, ptr noundef %4) #0 {
  %6 = alloca ptr, align 8
  %7 = alloca ptr, align 8
  %8 = alloca i32, align 4
  %9 = alloca i32, align 4
  %10 = alloca ptr, align 8
  %11 = alloca ptr, align 8
  store ptr %0, ptr %6, align 8, !tbaa !22
  store ptr %1, ptr %7, align 8, !tbaa !22
  store i32 %2, ptr %8, align 4, !tbaa !4
  store i32 %3, ptr %9, align 4, !tbaa !4
  store ptr %4, ptr %10, align 8, !tbaa !22
  call void @llvm.lifetime.start.p0(i64 8, ptr %11) #8
  %12 = load ptr, ptr %10, align 8, !tbaa !22
  %13 = load i32, ptr %9, align 4, !tbaa !4
  %14 = mul nsw i32 3, %13
  %15 = sext i32 %14 to i64
  %16 = sub i64 0, %15
  %17 = getelementptr inbounds i8, ptr %12, i64 %16
  store ptr %17, ptr %11, align 8, !tbaa !22
  br label %18

18:                                               ; preds = %22, %5
  %19 = load ptr, ptr %6, align 8, !tbaa !22
  %20 = load ptr, ptr %11, align 8, !tbaa !22
  %21 = icmp ult ptr %19, %20
  br i1 %21, label %22, label %83

22:                                               ; preds = %18
  %23 = load ptr, ptr %7, align 8, !tbaa !22
  %24 = load i8, ptr %23, align 1, !tbaa !39
  %25 = zext i8 %24 to i32
  %26 = sub i32 %25, 128
  %27 = shl i32 %26, 8
  %28 = trunc i32 %27 to i16
  %29 = load ptr, ptr %6, align 8, !tbaa !22
  store i16 %28, ptr %29, align 2, !tbaa !42
  %30 = load i32, ptr %8, align 4, !tbaa !4
  %31 = load ptr, ptr %7, align 8, !tbaa !22
  %32 = sext i32 %30 to i64
  %33 = getelementptr inbounds i8, ptr %31, i64 %32
  store ptr %33, ptr %7, align 8, !tbaa !22
  %34 = load i32, ptr %9, align 4, !tbaa !4
  %35 = load ptr, ptr %6, align 8, !tbaa !22
  %36 = sext i32 %34 to i64
  %37 = getelementptr inbounds i8, ptr %35, i64 %36
  store ptr %37, ptr %6, align 8, !tbaa !22
  %38 = load ptr, ptr %7, align 8, !tbaa !22
  %39 = load i8, ptr %38, align 1, !tbaa !39
  %40 = zext i8 %39 to i32
  %41 = sub i32 %40, 128
  %42 = shl i32 %41, 8
  %43 = trunc i32 %42 to i16
  %44 = load ptr, ptr %6, align 8, !tbaa !22
  store i16 %43, ptr %44, align 2, !tbaa !42
  %45 = load i32, ptr %8, align 4, !tbaa !4
  %46 = load ptr, ptr %7, align 8, !tbaa !22
  %47 = sext i32 %45 to i64
  %48 = getelementptr inbounds i8, ptr %46, i64 %47
  store ptr %48, ptr %7, align 8, !tbaa !22
  %49 = load i32, ptr %9, align 4, !tbaa !4
  %50 = load ptr, ptr %6, align 8, !tbaa !22
  %51 = sext i32 %49 to i64
  %52 = getelementptr inbounds i8, ptr %50, i64 %51
  store ptr %52, ptr %6, align 8, !tbaa !22
  %53 = load ptr, ptr %7, align 8, !tbaa !22
  %54 = load i8, ptr %53, align 1, !tbaa !39
  %55 = zext i8 %54 to i32
  %56 = sub i32 %55, 128
  %57 = shl i32 %56, 8
  %58 = trunc i32 %57 to i16
  %59 = load ptr, ptr %6, align 8, !tbaa !22
  store i16 %58, ptr %59, align 2, !tbaa !42
  %60 = load i32, ptr %8, align 4, !tbaa !4
  %61 = load ptr, ptr %7, align 8, !tbaa !22
  %62 = sext i32 %60 to i64
  %63 = getelementptr inbounds i8, ptr %61, i64 %62
  store ptr %63, ptr %7, align 8, !tbaa !22
  %64 = load i32, ptr %9, align 4, !tbaa !4
  %65 = load ptr, ptr %6, align 8, !tbaa !22
  %66 = sext i32 %64 to i64
  %67 = getelementptr inbounds i8, ptr %65, i64 %66
  store ptr %67, ptr %6, align 8, !tbaa !22
  %68 = load ptr, ptr %7, align 8, !tbaa !22
  %69 = load i8, ptr %68, align 1, !tbaa !39
  %70 = zext i8 %69 to i32
  %71 = sub i32 %70, 128
  %72 = shl i32 %71, 8
  %73 = trunc i32 %72 to i16
  %74 = load ptr, ptr %6, align 8, !tbaa !22
  store i16 %73, ptr %74, align 2, !tbaa !42
  %75 = load i32, ptr %8, align 4, !tbaa !4
  %76 = load ptr, ptr %7, align 8, !tbaa !22
  %77 = sext i32 %75 to i64
  %78 = getelementptr inbounds i8, ptr %76, i64 %77
  store ptr %78, ptr %7, align 8, !tbaa !22
  %79 = load i32, ptr %9, align 4, !tbaa !4
  %80 = load ptr, ptr %6, align 8, !tbaa !22
  %81 = sext i32 %79 to i64
  %82 = getelementptr inbounds i8, ptr %80, i64 %81
  store ptr %82, ptr %6, align 8, !tbaa !22
  br label %18, !llvm.loop !44

83:                                               ; preds = %18
  br label %84

84:                                               ; preds = %88, %83
  %85 = load ptr, ptr %6, align 8, !tbaa !22
  %86 = load ptr, ptr %10, align 8, !tbaa !22
  %87 = icmp ult ptr %85, %86
  br i1 %87, label %88, label %104

88:                                               ; preds = %84
  %89 = load ptr, ptr %7, align 8, !tbaa !22
  %90 = load i8, ptr %89, align 1, !tbaa !39
  %91 = zext i8 %90 to i32
  %92 = sub i32 %91, 128
  %93 = shl i32 %92, 8
  %94 = trunc i32 %93 to i16
  %95 = load ptr, ptr %6, align 8, !tbaa !22
  store i16 %94, ptr %95, align 2, !tbaa !42
  %96 = load i32, ptr %8, align 4, !tbaa !4
  %97 = load ptr, ptr %7, align 8, !tbaa !22
  %98 = sext i32 %96 to i64
  %99 = getelementptr inbounds i8, ptr %97, i64 %98
  store ptr %99, ptr %7, align 8, !tbaa !22
  %100 = load i32, ptr %9, align 4, !tbaa !4
  %101 = load ptr, ptr %6, align 8, !tbaa !22
  %102 = sext i32 %100 to i64
  %103 = getelementptr inbounds i8, ptr %101, i64 %102
  store ptr %103, ptr %6, align 8, !tbaa !22
  br label %84, !llvm.loop !45

104:                                              ; preds = %84
  call void @llvm.lifetime.end.p0(i64 8, ptr %11) #8
  ret void
}